target datalayout = "e-m:e-p270:32:32-p271:32:32-p272:64:64-i64:64-i128:128-f80:128-n8:16:32:64-S128"
target triple = "x86_64-pc-linux-gnu"

%struct.VhostUserMsg = type <{ i32, i32, i32, %union.anon, [8 x i32], i32, ptr }>
%union.anon = type { %struct.VhostUserMemory, [8 x i8] }
%struct.VhostUserMemory = type { i32, i32, [8 x %struct.VhostUserMemoryRegion] }
%struct.VhostUserMemoryRegion = type { i64, i64, i64, i64 }
%struct.iovec = type { ptr, i64 }
%struct.msghdr = type { ptr, i32, ptr, i64, ptr, i64, i32 }
%struct.cmsghdr = type { i64, i32, i32, [0 x i8] }

@.str.40 = private unnamed_addr constant [50 x i8] c"../qemu/subprojects/libvhost-user/libvhost-user.c\00", align 1
@.str.53 = private unnamed_addr constant [47 x i8] c"vmsg->fd_num <= VHOST_MEMORY_BASELINE_NREGIONS\00", align 1
@__PRETTY_FUNCTION__.vu_message_write = private unnamed_addr constant [53 x i8] c"_Bool vu_message_write(VuDev *, int, VhostUserMsg *)\00", align 1
@.str.54 = private unnamed_addr constant [24 x i8] c"Error while writing: %s\00", align 1

; Function Attrs: nounwind uwtable
define internal zeroext i1 @vu_message_write(ptr noundef %0, i32 noundef %1, ptr noundef %2) #0 {
  %4 = alloca i1, align 1
  %5 = alloca ptr, align 8
  %6 = alloca i32, align 4
  %7 = alloca ptr, align 8
  %8 = alloca i32, align 4
  %9 = alloca ptr, align 8
  %10 = alloca [48 x i8], align 16
  %11 = alloca %struct.iovec, align 8
  %12 = alloca %struct.msghdr, align 8
  %13 = alloca ptr, align 8
  %14 = alloca i64, align 8
  %15 = alloca i32, align 4
  store ptr %0, ptr %5, align 8
  store i32 %1, ptr %6, align 4
  store ptr %2, ptr %7, align 8
  call void @llvm.lifetime.start.p0(i64 4, ptr %8) #13
  store i32 0, ptr %8, align 4, !annotation !4
  call void @llvm.lifetime.start.p0(i64 8, ptr %9) #13
  %16 = load ptr, ptr %7, align 8
  store ptr %16, ptr %9, align 8
  call void @llvm.lifetime.start.p0(i64 48, ptr %10) #13
  call void @llvm.memset.p0.i64(ptr align 16 %10, i8 0, i64 48, i1 false)
  call void @llvm.lifetime.start.p0(i64 16, ptr %11) #13
  call void @llvm.memset.p0.i64(ptr align 8 %11, i8 0, i64 16, i1 false), !annotation !4
  %17 = getelementptr inbounds nuw %struct.iovec, ptr %11, i32 0, i32 0
  %18 = load ptr, ptr %7, align 8
  store ptr %18, ptr %17, align 8
  %19 = getelementptr inbounds nuw %struct.iovec, ptr %11, i32 0, i32 1
  store i64 12, ptr %19, align 8
  call void @llvm.lifetime.start.p0(i64 56, ptr %12) #13
  call void @llvm.memset.p0.i64(ptr align 8 %12, i8 0, i64 56, i1 false), !annotation !4
  %20 = getelementptr inbounds nuw %struct.msghdr, ptr %12, i32 0, i32 0
  store ptr null, ptr %20, align 8
  %21 = getelementptr inbounds nuw %struct.msghdr, ptr %12, i32 0, i32 1
  store i32 0, ptr %21, align 8
  %22 = getelementptr i8, ptr %12, i64 12
  call void @llvm.memset.p0.i64(ptr align 4 %22, i8 0, i64 4, i1 false)
  %23 = getelementptr inbounds nuw %struct.msghdr, ptr %12, i32 0, i32 2
  store ptr %11, ptr %23, align 8
  %24 = getelementptr inbounds nuw %struct.msghdr, ptr %12, i32 0, i32 3
  store i64 1, ptr %24, align 8
  %25 = getelementptr inbounds nuw %struct.msghdr, ptr %12, i32 0, i32 4
  %26 = getelementptr inbounds [48 x i8], ptr %10, i64 0, i64 0
  store ptr %26, ptr %25, align 8
  %27 = getelementptr inbounds nuw %struct.msghdr, ptr %12, i32 0, i32 5
  store i64 0, ptr %27, align 8
  %28 = getelementptr inbounds nuw %struct.msghdr, ptr %12, i32 0, i32 6
  store i32 0, ptr %28, align 8
  %29 = getelementptr i8, ptr %12, i64 52
  call void @llvm.memset.p0.i64(ptr align 4 %29, i8 0, i64 4, i1 false)
  call void @llvm.lifetime.start.p0(i64 8, ptr %13) #13
  store ptr null, ptr %13, align 8, !annotation !4
  %30 = getelementptr inbounds [48 x i8], ptr %10, i64 0, i64 0
  call void @llvm.memset.p0.i64(ptr align 16 %30, i8 0, i64 48, i1 false)
  %31 = load ptr, ptr %7, align 8
  %32 = getelementptr inbounds nuw %struct.VhostUserMsg, ptr %31, i32 0, i32 5
  %33 = load i32, ptr %32, align 1
  %34 = icmp sle i32 %33, 8
  br i1 %34, label %35, label %36

35:                                               ; preds = %3
  br label %37

36:                                               ; preds = %3
  call void @__assert_fail(ptr noundef @.str.53, ptr noundef @.str.40, i32 noundef 624, ptr noundef @__PRETTY_FUNCTION__.vu_message_write) #15
  unreachable

37:                                               ; preds = %35
  %38 = load ptr, ptr %7, align 8
  %39 = getelementptr inbounds nuw %struct.VhostUserMsg, ptr %38, i32 0, i32 5
  %40 = load i32, ptr %39, align 1
  %41 = icmp sgt i32 %40, 0
  br i1 %41, label %42, label %78

42:                                               ; preds = %37
  call void @llvm.lifetime.start.p0(i64 8, ptr %14) #13
  %43 = load ptr, ptr %7, align 8
  %44 = getelementptr inbounds nuw %struct.VhostUserMsg, ptr %43, i32 0, i32 5
  %45 = load i32, ptr %44, align 1
  %46 = sext i32 %45 to i64
  %47 = mul i64 %46, 4
  store i64 %47, ptr %14, align 8
  %48 = load i64, ptr %14, align 8
  %49 = add i64 %48, 8
  %50 = sub i64 %49, 1
  %51 = and i64 %50, -8
  %52 = add i64 %51, 16
  %53 = getelementptr inbounds nuw %struct.msghdr, ptr %12, i32 0, i32 5
  store i64 %52, ptr %53, align 8
  %54 = getelementptr inbounds nuw %struct.msghdr, ptr %12, i32 0, i32 5
  %55 = load i64, ptr %54, align 8
  %56 = icmp uge i64 %55, 16
  br i1 %56, label %57, label %60

57:                                               ; preds = %42
  %58 = getelementptr inbounds nuw %struct.msghdr, ptr %12, i32 0, i32 4
  %59 = load ptr, ptr %58, align 8
  br label %61

60:                                               ; preds = %42
  br label %61

61:                                               ; preds = %60, %57
  %62 = phi ptr [ %59, %57 ], [ null, %60 ]
  store ptr %62, ptr %13, align 8
  %63 = load i64, ptr %14, align 8
  %64 = add i64 16, %63
  %65 = load ptr, ptr %13, align 8
  %66 = getelementptr inbounds nuw %struct.cmsghdr, ptr %65, i32 0, i32 0
  store i64 %64, ptr %66, align 8
  %67 = load ptr, ptr %13, align 8
  %68 = getelementptr inbounds nuw %struct.cmsghdr, ptr %67, i32 0, i32 1
  store i32 1, ptr %68, align 8
  %69 = load ptr, ptr %13, align 8
  %70 = getelementptr inbounds nuw %struct.cmsghdr, ptr %69, i32 0, i32 2
  store i32 1, ptr %70, align 4
  %71 = load ptr, ptr %13, align 8
  %72 = getelementptr inbounds nuw %struct.cmsghdr, ptr %71, i32 0, i32 3
  %73 = getelementptr inbounds [0 x i8], ptr %72, i64 0, i64 0
  %74 = load ptr, ptr %7, align 8
  %75 = getelementptr inbounds nuw %struct.VhostUserMsg, ptr %74, i32 0, i32 4
  %76 = getelementptr inbounds [8 x i32], ptr %75, i64 0, i64 0
  %77 = load i64, ptr %14, align 8
  call void @llvm.memcpy.p0.p0.i64(ptr align 8 %73, ptr align 1 %76, i64 %77, i1 false)
  call void @llvm.lifetime.end.p0(i64 8, ptr %14) #13
  br label %81

78:                                               ; preds = %37
  %79 = getelementptr inbounds nuw %struct.msghdr, ptr %12, i32 0, i32 5
  store i64 0, ptr %79, align 8
  %80 = getelementptr inbounds nuw %struct.msghdr, ptr %12, i32 0, i32 4
  store ptr null, ptr %80, align 8
  br label %81

81:                                               ; preds = %78, %61
  br label %82

82:                                               ; preds = %99, %81
  %83 = load i32, ptr %6, align 4
  %84 = call i64 @sendmsg(i32 noundef %83, ptr noundef %12, i32 noundef 0)
  %85 = trunc i64 %84 to i32
  store i32 %85, ptr %8, align 4
  br label %86

86:                                               ; preds = %82
  %87 = load i32, ptr %8, align 4
  %88 = icmp slt i32 %87, 0
  br i1 %88, label %89, label %99

89:                                               ; preds = %86
  %90 = call ptr @__errno_location() #14
  %91 = load i32, ptr %90, align 4
  %92 = icmp eq i32 %91, 4
  br i1 %92, label %97, label %93

93:                                               ; preds = %89
  %94 = call ptr @__errno_location() #14
  %95 = load i32, ptr %94, align 4
  %96 = icmp eq i32 %95, 11
  br label %97

97:                                               ; preds = %93, %89
  %98 = phi i1 [ true, %89 ], [ %96, %93 ]
  br label %99

99:                                               ; preds = %97, %86
  %100 = phi i1 [ false, %86 ], [ %98, %97 ]
  br i1 %100, label %82, label %101

101:                                              ; preds = %99
  %102 = load i32, ptr %8, align 4
  %103 = icmp sle i32 %102, 0
  br i1 %103, label %104, label %109

104:                                              ; preds = %101
  %105 = load ptr, ptr %5, align 8
  %106 = call ptr @__errno_location() #14
  %107 = load i32, ptr %106, align 4
  %108 = call ptr @strerror(i32 noundef %107) #13
  call void (ptr, ptr, ...) @vu_panic(ptr noundef %105, ptr noundef @.str.54, ptr noundef %108)
  store i1 false, ptr %4, align 1
  store i32 1, ptr %15, align 4
  br label %167

109:                                              ; preds = %101
  %110 = load ptr, ptr %7, align 8
  %111 = getelementptr inbounds nuw %struct.VhostUserMsg, ptr %110, i32 0, i32 2
  %112 = load i32, ptr %111, align 1
  %113 = icmp ne i32 %112, 0
  br i1 %113, label %114, label %158

114:                                              ; preds = %109
  br label %115

115:                                              ; preds = %155, %114
  %116 = load ptr, ptr %7, align 8
  %117 = getelementptr inbounds nuw %struct.VhostUserMsg, ptr %116, i32 0, i32 6
  %118 = load ptr, ptr %117, align 1
  %119 = icmp ne ptr %118, null
  br i1 %119, label %120, label %131

120:                                              ; preds = %115
  %121 = load i32, ptr %6, align 4
  %122 = load ptr, ptr %7, align 8
  %123 = getelementptr inbounds nuw %struct.VhostUserMsg, ptr %122, i32 0, i32 6
  %124 = load ptr, ptr %123, align 1
  %125 = load ptr, ptr %7, align 8
  %126 = getelementptr inbounds nuw %struct.VhostUserMsg, ptr %125, i32 0, i32 2
  %127 = load i32, ptr %126, align 1
  %128 = zext i32 %127 to i64
  %129 = call i64 @write(i32 noundef %121, ptr noundef %124, i64 noundef %128)
  %130 = trunc i64 %129 to i32
  store i32 %130, ptr %8, align 4
  br label %141

131:                                              ; preds = %115
  %132 = load i32, ptr %6, align 4
  %133 = load ptr, ptr %9, align 8
  %134 = getelementptr inbounds nuw i8, ptr %133, i64 12
  %135 = load ptr, ptr %7, align 8
  %136 = getelementptr inbounds nuw %struct.VhostUserMsg, ptr %135, i32 0, i32 2
  %137 = load i32, ptr %136, align 1
  %138 = zext i32 %137 to i64
  %139 = call i64 @write(i32 noundef %132, ptr noundef %134, i64 noundef %138)
  %140 = trunc i64 %139 to i32
  store i32 %140, ptr %8, align 4
  br label %141

141:                                              ; preds = %131, %120
  br label %142

142:                                              ; preds = %141
  %143 = load i32, ptr %8, align 4
  %144 = icmp slt i32 %143, 0
  br i1 %144, label %145, label %155

145:                                              ; preds = %142
  %146 = call ptr @__errno_location() #14
  %147 = load i32, ptr %146, align 4
  %148 = icmp eq i32 %147, 4
  br i1 %148, label %153, label %149

149:                                              ; preds = %145
  %150 = call ptr @__errno_location() #14
  %151 = load i32, ptr %150, align 4
  %152 = icmp eq i32 %151, 11
  br label %153

153:                                              ; preds = %149, %145
  %154 = phi i1 [ true, %145 ], [ %152, %149 ]
  br label %155

155:                                              ; preds = %153, %142
  %156 = phi i1 [ false, %142 ], [ %154, %153 ]
  br i1 %156, label %115, label %157

157:                                              ; preds = %155
  br label %158

158:                                              ; preds = %157, %109
  %159 = load i32, ptr %8, align 4
  %160 = icmp sle i32 %159, 0
  br i1 %160, label %161, label %166

161:                                              ; preds = %158
  %162 = load ptr, ptr %5, align 8
  %163 = call ptr @__errno_location() #14
  %164 = load i32, ptr %163, align 4
  %165 = call ptr @strerror(i32 noundef %164) #13
  call void (ptr, ptr, ...) @vu_panic(ptr noundef %162, ptr noundef @.str.54, ptr noundef %165)
  store i1 false, ptr %4, align 1
  store i32 1, ptr %15, align 4
  br label %167

166:                                              ; preds = %158
  store i1 true, ptr %4, align 1
  store i32 1, ptr %15, align 4
  br label %167

167:                                              ; preds = %166, %161, %104
  call void @llvm.lifetime.end.p0(i64 8, ptr %13) #13
  call void @llvm.lifetime.end.p0(i64 56, ptr %12) #13
  call void @llvm.lifetime.end.p0(i64 16, ptr %11) #13
  call void @llvm.lifetime.end.p0(i64 48, ptr %10) #13
  call void @llvm.lifetime.end.p0(i64 8, ptr %9) #13
  call void @llvm.lifetime.end.p0(i64 4, ptr %8) #13
  %168 = load i1, ptr %4, align 1
  ret i1 %168
}