; Function Attrs: nounwind uwtable
define internal fastcc noundef zeroext i1 @vu_message_write(ptr noundef %0, i32 noundef %1, ptr noundef nonnull %2) unnamed_addr #3 {
  %4 = alloca [48 x i8], align 16
  %5 = alloca %struct.iovec, align 8
  %6 = alloca %struct.msghdr, align 8
  call void @llvm.lifetime.start.p0(i64 48, ptr nonnull %4) #21
  call void @llvm.lifetime.start.p0(i64 16, ptr nonnull %5) #21
  store ptr %2, ptr %5, align 8
  %7 = getelementptr inbounds nuw i8, ptr %5, i64 8
  store i64 12, ptr %7, align 8
  call void @llvm.lifetime.start.p0(i64 56, ptr nonnull %6) #21
  %8 = getelementptr inbounds nuw i8, ptr %6, i64 16
  call void @llvm.memset.p0.i64(ptr noundef nonnull align 8 dereferenceable(16) %6, i8 0, i64 16, i1 false)
  store ptr %5, ptr %8, align 8
  %9 = getelementptr inbounds nuw i8, ptr %6, i64 24
  store i64 1, ptr %9, align 8
  %10 = getelementptr inbounds nuw i8, ptr %6, i64 32
  store ptr %4, ptr %10, align 8
  %11 = getelementptr inbounds nuw i8, ptr %6, i64 40
  %12 = getelementptr inbounds nuw i8, ptr %6, i64 48
  store i64 0, ptr %12, align 8
  call void @llvm.memset.p0.i64(ptr noundef nonnull align 16 dereferenceable(48) %4, i8 0, i64 48, i1 false)
  %13 = getelementptr inbounds nuw i8, ptr %2, i64 316
  %14 = load i32, ptr %13, align 1
  %15 = icmp slt i32 %14, 9
  br i1 %15, label %17, label %16

16:                                               ; preds = %3
  call void @__assert_fail(ptr noundef nonnull @.str.53, ptr noundef nonnull @.str.40, i32 noundef 624, ptr noundef nonnull @__PRETTY_FUNCTION__.vu_message_write) #23
  unreachable

17:                                               ; preds = %3
  %18 = icmp sgt i32 %14, 0
  br i1 %18, label %19, label %30

19:                                               ; preds = %17
  %20 = zext nneg i32 %14 to i64
  %21 = shl nuw nsw i64 %20, 2
  %22 = add nuw nsw i64 %21, 7
  %23 = and i64 %22, 17179869176
  %24 = add nuw nsw i64 %23, 16
  %25 = add nuw nsw i64 %21, 16
  store i64 %25, ptr %4, align 16
  %26 = getelementptr inbounds nuw i8, ptr %4, i64 8
  store i32 1, ptr %26, align 8
  %27 = getelementptr inbounds nuw i8, ptr %4, i64 12
  store i32 1, ptr %27, align 4
  %28 = getelementptr inbounds nuw i8, ptr %4, i64 16
  %29 = getelementptr inbounds nuw i8, ptr %2, i64 284
  call void @llvm.memcpy.p0.p0.i64(ptr nonnull align 16 %28, ptr nonnull align 1 %29, i64 %21, i1 false)
  br label %31

30:                                               ; preds = %17
  store ptr null, ptr %10, align 8
  br label %31

31:                                               ; preds = %30, %19
  %.sink = phi i64 [ %24, %19 ], [ 0, %30 ]
  store i64 %.sink, ptr %11, align 8
  %32 = call i64 @sendmsg(i32 noundef %1, ptr noundef nonnull %6, i32 noundef 0) #21
  %33 = trunc i64 %32 to i32
  %34 = icmp slt i32 %33, 0
  br i1 %34, label %.lr.ph, label %.critedge

.lr.ph:                                           ; preds = %31
  %35 = tail call ptr @__errno_location() #22
  br label %36

36:                                               ; preds = %.lr.ph, %.critedge2.backedge
  %37 = load i32, ptr %35, align 4
  switch i32 %37, label %.critedge4.thread42.sink.split [
    i32 4, label %.critedge2.backedge
    i32 11, label %.critedge2.backedge
  ]

.critedge2.backedge:                              ; preds = %36, %36
  %38 = call i64 @sendmsg(i32 noundef %1, ptr noundef nonnull %6, i32 noundef 0) #21
  %39 = trunc i64 %38 to i32
  %40 = icmp slt i32 %39, 0
  br i1 %40, label %36, label %.critedge

.critedge:                                        ; preds = %.critedge2.backedge, %31
  %.lcssa = phi i32 [ %33, %31 ], [ %39, %.critedge2.backedge ]
  %41 = icmp eq i32 %.lcssa, 0
  br i1 %41, label %.critedge4.thread42.sink.split.sink.split, label %42

42:                                               ; preds = %.critedge
  %43 = getelementptr inbounds nuw i8, ptr %2, i64 8
  %44 = load i32, ptr %43, align 1
  %.not = icmp eq i32 %44, 0
  br i1 %.not, label %.critedge4.thread42, label %.critedge6.preheader

.critedge6.preheader:                             ; preds = %42
  %45 = getelementptr inbounds nuw i8, ptr %2, i64 320
  %46 = getelementptr inbounds nuw i8, ptr %2, i64 12
  %47 = load ptr, ptr %45, align 1
  %.not4060 = icmp eq ptr %47, null
  %48 = load i32, ptr %43, align 1
  %49 = zext i32 %48 to i64
  %.61 = select i1 %.not4060, ptr %46, ptr %47
  %50 = call i64 @write(i32 noundef %1, ptr noundef nonnull %.61, i64 noundef %49) #21
  %.162 = trunc i64 %50 to i32
  %51 = icmp slt i32 %.162, 0
  br i1 %51, label %.lr.ph63.preheader, label %.critedge4

.lr.ph63.preheader:                               ; preds = %.critedge6.preheader
  %52 = tail call ptr @__errno_location() #22
  br label %.lr.ph63

.lr.ph63:                                         ; preds = %.lr.ph63.preheader, %.critedge6.backedge
  %53 = load i32, ptr %52, align 4
  switch i32 %53, label %.critedge4.thread42.sink.split [
    i32 4, label %.critedge6.backedge
    i32 11, label %.critedge6.backedge
  ]

.critedge6.backedge:                              ; preds = %.lr.ph63, %.lr.ph63
  %54 = load ptr, ptr %45, align 1
  %.not40 = icmp eq ptr %54, null
  %55 = load i32, ptr %43, align 1
  %56 = zext i32 %55 to i64
  %. = select i1 %.not40, ptr %46, ptr %54
  %57 = call i64 @write(i32 noundef %1, ptr noundef nonnull %., i64 noundef %56) #21
  %.1 = trunc i64 %57 to i32
  %58 = icmp slt i32 %.1, 0
  br i1 %58, label %.lr.ph63, label %.critedge4

.critedge4:                                       ; preds = %.critedge6.backedge, %.critedge6.preheader
  %.1.lcssa = phi i32 [ %.162, %.critedge6.preheader ], [ %.1, %.critedge6.backedge ]
  %59 = icmp eq i32 %.1.lcssa, 0
  br i1 %59, label %.critedge4.thread42.sink.split.sink.split, label %.critedge4.thread42

.critedge4.thread42.sink.split.sink.split:        ; preds = %.critedge4, %.critedge
  %.pre48 = tail call ptr @__errno_location() #22
  br label %.critedge4.thread42.sink.split

.critedge4.thread42.sink.split:                   ; preds = %36, %.lr.ph63, %.critedge4.thread42.sink.split.sink.split
  %.pre-phi49.sink = phi ptr [ %.pre48, %.critedge4.thread42.sink.split.sink.split ], [ %52, %.lr.ph63 ], [ %35, %36 ]
  %60 = load i32, ptr %.pre-phi49.sink, align 4
  %61 = call ptr @strerror(i32 noundef %60) #21
  call void (ptr, ptr, ...) @vu_panic(ptr noundef %0, ptr noundef nonnull @.str.54, ptr noundef %61)
  br label %.critedge4.thread42

.critedge4.thread42:                              ; preds = %.critedge4.thread42.sink.split, %42, %.critedge4
  %.0 = phi i1 [ true, %.critedge4 ], [ true, %42 ], [ false, %.critedge4.thread42.sink.split ]
  call void @llvm.lifetime.end.p0(i64 56, ptr nonnull %6) #21
  call void @llvm.lifetime.end.p0(i64 16, ptr nonnull %5) #21
  call void @llvm.lifetime.end.p0(i64 48, ptr nonnull %4) #21
  ret i1 %.0
}